; ModuleID = 'source-C-CXX/56/657.c'
source_filename = "source-C-CXX/56/657.c"
target datalayout = "e-m:e-p270:32:32-p271:32:32-p272:64:64-i64:64-f80:128-n8:16:32:64-S128"
target triple = "x86_64-pc-linux-gnu"

@.str = private unnamed_addr constant [3 x i8] c"%d\00", align 1

; Function Attrs: nounwind sspstrong uwtable
define dso_local i32 @main() local_unnamed_addr #0 {
  %1 = alloca i32, align 4
  %2 = alloca [50 x [32 x i8]], align 16
  %3 = bitcast i32* %1 to i8*
  call void @llvm.lifetime.start.p0i8(i64 4, i8* nonnull %3) #6
  %4 = getelementptr inbounds [50 x [32 x i8]], [50 x [32 x i8]]* %2, i64 0, i64 0, i64 0
  call void @llvm.lifetime.start.p0i8(i64 1600, i8* nonnull %4) #6
  %5 = call i32 (i8*, ...) @__isoc99_scanf(i8* getelementptr inbounds ([3 x i8], [3 x i8]* @.str, i64 0, i64 0), i32* nonnull %1)
  %6 = load i32, i32* %1, align 4, !tbaa !5
  %7 = icmp slt i32 %6, 0
  br i1 %7, label %67, label %10

8:                                                ; preds = %54
  %9 = icmp slt i32 %56, 0
  br i1 %9, label %67, label %59

10:                                               ; preds = %0, %54
  %11 = phi i64 [ %55, %54 ], [ 0, %0 ]
  %12 = getelementptr inbounds [50 x [32 x i8]], [50 x [32 x i8]]* %2, i64 0, i64 %11, i64 0
  %13 = call i32 (i8*, ...) bitcast (i32 (...)* @gets to i32 (i8*, ...)*)(i8* nonnull %12) #6
  %14 = call i64 @strlen(i8* noundef nonnull %12) #7
  %15 = trunc i64 %14 to i32
  %16 = shl i32 %15, 24
  %17 = ashr exact i32 %16, 24
  %18 = icmp sgt i32 %16, 33554432
  br i1 %18, label %19, label %54

19:                                               ; preds = %10
  %20 = add nsw i32 %17, -2
  %21 = zext i32 %20 to i64
  %22 = getelementptr inbounds [50 x [32 x i8]], [50 x [32 x i8]]* %2, i64 0, i64 %11, i64 %21
  %23 = load i8, i8* %22, align 1, !tbaa !9
  switch i8 %23, label %36 [
    i8 101, label %24
    i8 108, label %30
  ]

24:                                               ; preds = %19
  %25 = add nsw i32 %17, -1
  %26 = zext i32 %25 to i64
  %27 = getelementptr inbounds [50 x [32 x i8]], [50 x [32 x i8]]* %2, i64 0, i64 %11, i64 %26
  %28 = load i8, i8* %27, align 1, !tbaa !9
  %29 = icmp eq i8 %28, 114
  br i1 %29, label %52, label %36

30:                                               ; preds = %19
  %31 = add nsw i32 %17, -1
  %32 = zext i32 %31 to i64
  %33 = getelementptr inbounds [50 x [32 x i8]], [50 x [32 x i8]]* %2, i64 0, i64 %11, i64 %32
  %34 = load i8, i8* %33, align 1, !tbaa !9
  %35 = icmp eq i8 %34, 121
  br i1 %35, label %52, label %36

36:                                               ; preds = %19, %24, %30
  %37 = icmp sgt i32 %16, 50331648
  br i1 %37, label %38, label %54

38:                                               ; preds = %36
  %39 = add nsw i32 %17, -3
  %40 = zext i32 %39 to i64
  %41 = getelementptr inbounds [50 x [32 x i8]], [50 x [32 x i8]]* %2, i64 0, i64 %11, i64 %40
  %42 = load i8, i8* %41, align 1, !tbaa !9
  %43 = icmp eq i8 %42, 105
  %44 = icmp eq i8 %23, 110
  %45 = select i1 %43, i1 %44, i1 false
  br i1 %45, label %46, label %54

46:                                               ; preds = %38
  %47 = add nsw i32 %17, -1
  %48 = zext i32 %47 to i64
  %49 = getelementptr inbounds [50 x [32 x i8]], [50 x [32 x i8]]* %2, i64 0, i64 %11, i64 %48
  %50 = load i8, i8* %49, align 1, !tbaa !9
  %51 = icmp eq i8 %50, 103
  br i1 %51, label %52, label %54

52:                                               ; preds = %46, %30, %24
  %53 = phi i8* [ %22, %24 ], [ %22, %30 ], [ %41, %46 ]
  store i8 0, i8* %53, align 1, !tbaa !9
  br label %54

54:                                               ; preds = %52, %10, %36, %38, %46
  %55 = add nuw nsw i64 %11, 1
  %56 = load i32, i32* %1, align 4, !tbaa !5
  %57 = sext i32 %56 to i64
  %58 = icmp slt i64 %11, %57
  br i1 %58, label %10, label %8, !llvm.loop !10

59:                                               ; preds = %8, %59
  %60 = phi i64 [ %63, %59 ], [ 0, %8 ]
  %61 = getelementptr inbounds [50 x [32 x i8]], [50 x [32 x i8]]* %2, i64 0, i64 %60, i64 0
  %62 = call i32 @puts(i8* nonnull %61)
  %63 = add nuw nsw i64 %60, 1
  %64 = load i32, i32* %1, align 4, !tbaa !5
  %65 = sext i32 %64 to i64
  %66 = icmp slt i64 %60, %65
  br i1 %66, label %59, label %67, !llvm.loop !12

67:                                               ; preds = %59, %0, %8
  call void @llvm.lifetime.end.p0i8(i64 1600, i8* nonnull %4) #6
  call void @llvm.lifetime.end.p0i8(i64 4, i8* nonnull %3) #6
  ret i32 0
}

; Function Attrs: argmemonly mustprogress nofree nosync nounwind willreturn
declare void @llvm.lifetime.start.p0i8(i64 immarg, i8* nocapture) #1

; Function Attrs: nofree nounwind
declare noundef i32 @__isoc99_scanf(i8* nocapture noundef readonly, ...) local_unnamed_addr #2

declare i32 @gets(...) local_unnamed_addr #3

; Function Attrs: argmemonly mustprogress nofree nounwind readonly willreturn
declare i64 @strlen(i8* nocapture) local_unnamed_addr #4

; Function Attrs: argmemonly mustprogress nofree nosync nounwind willreturn
declare void @llvm.lifetime.end.p0i8(i64 immarg, i8* nocapture) #1

; Function Attrs: nofree nounwind
declare noundef i32 @puts(i8* nocapture noundef readonly) local_unnamed_addr #5


!llvm.module.flags = !{!0, !1, !2, !3}
!llvm.ident = !{!4}

!0 = !{i32 1, !"wchar_size", i32 4}
!1 = !{i32 7, !"PIC Level", i32 2}
!2 = !{i32 7, !"PIE Level", i32 2}
!3 = !{i32 7, !"uwtable", i32 1}
!4 = !{!"clang version 13.0.0"}
!5 = !{!6, !6, i64 0}
!6 = !{!"int", !7, i64 0}
!7 = !{!"omnipotent char", !8, i64 0}
!8 = !{!"Simple C/C++ TBAA"}
!9 = !{!7, !7, i64 0}
!10 = distinct !{!10, !11}
!11 = !{!"llvm.loop.mustprogress"}
!12 = distinct !{!12, !11}
